target datalayout = "e-m:e-p270:32:32-p271:32:32-p272:64:64-i64:64-i128:128-f80:128-n8:16:32:64-S128"
target triple = "x86_64-pc-linux-gnu"

%struct.hwloc_topology = type { i32, i32, i32, ptr, ptr, i64, [20 x i32], [20 x i32], i64, i64, i32, ptr, i64, ptr, i64, [6 x %struct.hwloc_special_level_s], ptr, ptr, %struct.hwloc_binding_hooks, %struct.hwloc_topology_support, %struct.hwloc_infos_s, ptr, ptr, i32, ptr, ptr, i32, i32, ptr, i32, i32, ptr, i32, i32, i32, [5 x float], i32, ptr, ptr, i32, i32, ptr, i32, %struct.hwloc_numanode_attr_s, i32, i32, ptr, i64, i32, ptr, ptr, ptr }
%struct.hwloc_special_level_s = type { i32, ptr, ptr, ptr }
%struct.hwloc_binding_hooks = type { ptr, ptr, ptr, ptr, ptr, ptr, ptr, ptr, ptr, ptr, ptr, ptr, ptr, ptr, ptr, ptr, ptr, ptr, ptr, ptr, ptr, ptr, ptr, ptr }
%struct.hwloc_topology_support = type { ptr, ptr, ptr, ptr }
%struct.hwloc_infos_s = type { ptr, i32, i32 }
%struct.hwloc_numanode_attr_s = type { i64, i32, ptr }
%struct.hwloc_internal_memattr_s = type { ptr, i64, i32, i32, ptr }

; Function Attrs: nounwind uwtable
define hidden void @hwloc_internal_memattrs_refresh(ptr noundef %0) #0 {
  %2 = alloca ptr, align 8
  %3 = alloca i32, align 4
  %4 = alloca ptr, align 8
  %5 = alloca i32, align 4
  store ptr %0, ptr %2, align 8, !tbaa !3
  call void @llvm.lifetime.start.p0(i64 4, ptr %3) #14
  store i32 0, ptr %3, align 4, !tbaa !45
  br label %6

6:                                                ; preds = %31, %1
  %7 = load i32, ptr %3, align 4, !tbaa !45
  %8 = load ptr, ptr %2, align 8, !tbaa !3
  %9 = getelementptr inbounds nuw %struct.hwloc_topology, ptr %8, i32 0, i32 27
  %10 = load i32, ptr %9, align 4, !tbaa !8
  %11 = icmp ult i32 %7, %10
  br i1 %11, label %12, label %34

12:                                               ; preds = %6
  call void @llvm.lifetime.start.p0(i64 8, ptr %4) #14
  %13 = load ptr, ptr %2, align 8, !tbaa !3
  %14 = getelementptr inbounds nuw %struct.hwloc_topology, ptr %13, i32 0, i32 28
  %15 = load ptr, ptr %14, align 8, !tbaa !33
  %16 = load i32, ptr %3, align 4, !tbaa !45
  %17 = zext i32 %16 to i64
  %18 = getelementptr inbounds nuw %struct.hwloc_internal_memattr_s, ptr %15, i64 %17
  store ptr %18, ptr %4, align 8, !tbaa !34
  %19 = load ptr, ptr %4, align 8, !tbaa !34
  %20 = getelementptr inbounds nuw %struct.hwloc_internal_memattr_s, ptr %19, i32 0, i32 2
  %21 = load i32, ptr %20, align 8, !tbaa !42
  %22 = and i32 %21, 2
  %23 = icmp ne i32 %22, 0
  br i1 %23, label %24, label %25

24:                                               ; preds = %12
  store i32 4, ptr %5, align 4
  br label %28

25:                                               ; preds = %12
  %26 = load ptr, ptr %2, align 8, !tbaa !3
  %27 = load ptr, ptr %4, align 8, !tbaa !34
  call void @hwloc__imattr_refresh(ptr noundef %26, ptr noundef %27)
  store i32 0, ptr %5, align 4
  br label %28

28:                                               ; preds = %25, %24
  call void @llvm.lifetime.end.p0(i64 8, ptr %4) #14
  %29 = load i32, ptr %5, align 4
  switch i32 %29, label %35 [
    i32 0, label %30
    i32 4, label %31
  ]

30:                                               ; preds = %28
  br label %31

31:                                               ; preds = %30, %28
  %32 = load i32, ptr %3, align 4, !tbaa !45
  %33 = add i32 %32, 1
  store i32 %33, ptr %3, align 4, !tbaa !45
  br label %6, !llvm.loop !76

34:                                               ; preds = %6
  call void @llvm.lifetime.end.p0(i64 4, ptr %3) #14
  ret void

35:                                               ; preds = %28
  unreachable
}