; Function Attrs: nounwind uwtable
define hidden void @hwloc_internal_memattrs_refresh(ptr noundef %0) local_unnamed_addr #3 {
  %2 = getelementptr inbounds nuw i8, ptr %0, i64 748
  %3 = load i32, ptr %2, align 4, !tbaa !3
  %.not8 = icmp eq i32 %3, 0
  br i1 %.not8, label %._crit_edge, label %.lr.ph

.lr.ph:                                           ; preds = %1
  %4 = getelementptr inbounds nuw i8, ptr %0, i64 752
  br label %5

5:                                                ; preds = %.lr.ph, %13
  %6 = phi i32 [ %3, %.lr.ph ], [ %14, %13 ]
  %indvars.iv = phi i64 [ 0, %.lr.ph ], [ %indvars.iv.next, %13 ]
  %7 = load ptr, ptr %4, align 8, !tbaa !31
  %8 = getelementptr inbounds nuw %struct.hwloc_internal_memattr_s, ptr %7, i64 %indvars.iv
  %9 = getelementptr inbounds nuw i8, ptr %8, i64 16
  %10 = load i32, ptr %9, align 8, !tbaa !37
  %11 = and i32 %10, 2
  %.not = icmp eq i32 %11, 0
  br i1 %.not, label %12, label %13

12:                                               ; preds = %5
  tail call fastcc void @hwloc__imattr_refresh(ptr noundef nonnull %0, ptr noundef nonnull %8)
  %.pre = load i32, ptr %2, align 4, !tbaa !3
  br label %13

13:                                               ; preds = %5, %12
  %14 = phi i32 [ %6, %5 ], [ %.pre, %12 ]
  %indvars.iv.next = add nuw nsw i64 %indvars.iv, 1
  %15 = zext i32 %14 to i64
  %16 = icmp samesign ult i64 %indvars.iv.next, %15
  br i1 %16, label %5, label %._crit_edge, !llvm.loop !65

._crit_edge:                                      ; preds = %13, %1
  ret void
}